; Function Attrs: mustprogress nounwind
define internal noundef ptr @_ZN3tbb6detail2d213function_taskIZN4moldL15new_object_fileINS3_6X86_64EEEPNS3_10ObjectFileIT_EERNS3_7ContextIS7_EERNS3_13ReaderContextEPNS3_10MappedFileENSt7__cxx1112basic_stringIcSt11char_traitsIcESaIcEEEEUlvE_E6cancelERNS0_2d114execution_dataE(ptr noundef nonnull align 64 dereferenceable(112) %0, ptr noundef nonnull align 8 dereferenceable(12) %1) unnamed_addr #4 align 2 {
  %3 = getelementptr inbounds nuw i8, ptr %0, i64 88
  %4 = load i64, ptr %3, align 8, !tbaa !789
  %5 = inttoptr i64 %4 to ptr
  %6 = load ptr, ptr %0, align 64, !tbaa !305
  %7 = load ptr, ptr %6, align 8
  tail call void %7(ptr noundef nonnull align 64 dereferenceable(96) %0) #16
  tail call void @_ZN3tbb6detail2r110deallocateERNS0_2d117small_object_poolEPvmRKNS2_14execution_dataE(ptr noundef nonnull align 1 dereferenceable(1) %5, ptr noundef nonnull align 64 dereferenceable(96) %0, i64 noundef 128, ptr noundef nonnull align 8 dereferenceable(12) %1) #16
  ret ptr null
}